target datalayout = "e-m:e-p270:32:32-p271:32:32-p272:64:64-i64:64-i128:128-f80:128-n8:16:32:64-S128"
target triple = "x86_64-pc-linux-gnu"

; Function Attrs: nounwind uwtable
define dso_local i64 @hex_encode(ptr noundef %0, i64 noundef %1, ptr noundef %2) #0 {
  %4 = alloca ptr, align 8
  %5 = alloca i64, align 8
  %6 = alloca ptr, align 8
  %7 = alloca ptr, align 8
  %8 = alloca i8, align 1
  store ptr %0, ptr %4, align 8
  store i64 %1, ptr %5, align 8
  store ptr %2, ptr %6, align 8
  call void @llvm.lifetime.start.p0(i64 8, ptr %7) #6
  %9 = load ptr, ptr %4, align 8
  %10 = load i64, ptr %5, align 8
  %11 = getelementptr inbounds nuw i8, ptr %9, i64 %10
  store ptr %11, ptr %7, align 8
  br label %12

12:                                               ; preds = %16, %3
  %13 = load ptr, ptr %4, align 8
  %14 = load ptr, ptr %7, align 8
  %15 = icmp ult ptr %13, %14
  br i1 %15, label %16, label %29

16:                                               ; preds = %12
  call void @llvm.lifetime.start.p0(i64 1, ptr %8) #6
  %17 = load ptr, ptr %4, align 8
  %18 = load i8, ptr %17, align 1
  store i8 %18, ptr %8, align 1
  %19 = load ptr, ptr %6, align 8
  %20 = load i8, ptr %8, align 1
  %21 = zext i8 %20 to i32
  %22 = mul i32 2, %21
  %23 = sext i32 %22 to i64
  %24 = getelementptr inbounds [512 x i8], ptr @hextbl, i64 0, i64 %23
  call void @llvm.memcpy.p0.p0.i64(ptr align 1 %19, ptr align 1 %24, i64 2, i1 false)
  %25 = load ptr, ptr %4, align 8
  %26 = getelementptr inbounds nuw i8, ptr %25, i32 1
  store ptr %26, ptr %4, align 8
  %27 = load ptr, ptr %6, align 8
  %28 = getelementptr inbounds i8, ptr %27, i64 2
  store ptr %28, ptr %6, align 8
  call void @llvm.lifetime.end.p0(i64 1, ptr %8) #6
  br label %12, !llvm.loop !6

29:                                               ; preds = %12
  %30 = load i64, ptr %5, align 8
  %31 = mul i64 %30, 2
  call void @llvm.lifetime.end.p0(i64 8, ptr %7) #6
  ret i64 %31
}