; Function Attrs: nofree norecurse nosync nounwind memory(argmem: readwrite) uwtable
define dso_local noundef range(i64 0, -1) i64 @hex_encode(ptr noundef readonly captures(address) %0, i64 noundef %1, ptr noundef writeonly captures(none) %2) #3 {
  %4 = getelementptr inbounds nuw i8, ptr %0, i64 %1
  %.not = icmp eq i64 %1, 0
  br i1 %.not, label %._crit_edge, label %.lr.ph

.lr.ph:                                           ; preds = %3, %.lr.ph
  %.011 = phi ptr [ %10, %.lr.ph ], [ %0, %3 ]
  %.0910 = phi ptr [ %11, %.lr.ph ], [ %2, %3 ]
  %5 = load i8, ptr %.011, align 1
  %6 = zext i8 %5 to i64
  %7 = shl nuw nsw i64 %6, 1
  %8 = getelementptr inbounds nuw [512 x i8], ptr @hextbl, i64 0, i64 %7
  %9 = load i16, ptr %8, align 2
  store i16 %9, ptr %.0910, align 1
  %10 = getelementptr inbounds nuw i8, ptr %.011, i64 1
  %11 = getelementptr inbounds nuw i8, ptr %.0910, i64 2
  %12 = icmp ult ptr %10, %4
  br i1 %12, label %.lr.ph, label %._crit_edge, !llvm.loop !6

._crit_edge:                                      ; preds = %.lr.ph, %3
  %13 = shl i64 %1, 1
  ret i64 %13
}